; Function Attrs: mustprogress nofree norecurse nosync nounwind memory(argmem: readwrite) uwtable
define hidden void @_ZN2cv7acc_64fEPKdPdPKhii(ptr noundef readonly captures(none) %0, ptr noundef captures(none) %1, ptr noundef readonly %2, i32 noundef %3, i32 noundef %4) local_unnamed_addr #0 {
  %.not.i.i = icmp eq ptr %2, null
  br i1 %.not.i.i, label %6, label %14

6:                                                ; preds = %5
  %7 = mul nsw i32 %4, %3
  %8 = icmp sgt i32 %7, 0
  br i1 %8, label %.lr.ph.preheader.i.i, label %_ZN2cv12cpu_baseline9acc_simd_EPKdPdPKhii.exit

.lr.ph.preheader.i.i:                             ; preds = %6
  %wide.trip.count56.i.i = zext nneg i32 %7 to i64
  br label %.lr.ph.i.i

.lr.ph.i.i:                                       ; preds = %.lr.ph.i.i, %.lr.ph.preheader.i.i
  %indvars.iv53.i.i = phi i64 [ 0, %.lr.ph.preheader.i.i ], [ %indvars.iv.next54.i.i, %.lr.ph.i.i ]
  %9 = getelementptr inbounds nuw double, ptr %0, i64 %indvars.iv53.i.i
  %10 = load double, ptr %9, align 8, !tbaa !20
  %11 = getelementptr inbounds nuw double, ptr %1, i64 %indvars.iv53.i.i
  %12 = load double, ptr %11, align 8, !tbaa !20
  %13 = fadd double %10, %12
  store double %13, ptr %11, align 8, !tbaa !20
  %indvars.iv.next54.i.i = add nuw nsw i64 %indvars.iv53.i.i, 1
  %exitcond57.not.i.i = icmp eq i64 %indvars.iv.next54.i.i, %wide.trip.count56.i.i
  br i1 %exitcond57.not.i.i, label %_ZN2cv12cpu_baseline9acc_simd_EPKdPdPKhii.exit, label %.lr.ph.i.i, !llvm.loop !31

14:                                               ; preds = %5
  %15 = icmp sgt i32 %3, 0
  br i1 %15, label %.lr.ph43.i.i, label %_ZN2cv12cpu_baseline9acc_simd_EPKdPdPKhii.exit

.lr.ph43.i.i:                                     ; preds = %14
  %16 = icmp sgt i32 %4, 0
  %17 = sext i32 %4 to i64
  br i1 %16, label %.lr.ph43.split.us.preheader.i.i, label %_ZN2cv12cpu_baseline9acc_simd_EPKdPdPKhii.exit

.lr.ph43.split.us.preheader.i.i:                  ; preds = %.lr.ph43.i.i
  %wide.trip.count51.i.i = zext nneg i32 %3 to i64
  %wide.trip.count.i.i = zext nneg i32 %4 to i64
  br label %.lr.ph43.split.us.i.i

.lr.ph43.split.us.i.i:                            ; preds = %..loopexit37_crit_edge.us.i.i, %.lr.ph43.split.us.preheader.i.i
  %indvars.iv48.i.i = phi i64 [ 0, %.lr.ph43.split.us.preheader.i.i ], [ %indvars.iv.next49.i.i, %..loopexit37_crit_edge.us.i.i ]
  %.03341.us.i.i = phi ptr [ %0, %.lr.ph43.split.us.preheader.i.i ], [ %25, %..loopexit37_crit_edge.us.i.i ]
  %.03440.us.i.i = phi ptr [ %1, %.lr.ph43.split.us.preheader.i.i ], [ %26, %..loopexit37_crit_edge.us.i.i ]
  %18 = getelementptr inbounds nuw i8, ptr %2, i64 %indvars.iv48.i.i
  %19 = load i8, ptr %18, align 1, !tbaa !3
  %.not36.us.i.i = icmp eq i8 %19, 0
  br i1 %.not36.us.i.i, label %..loopexit37_crit_edge.us.i.i, label %.preheader.us.i.i

.preheader.us.i.i:                                ; preds = %.lr.ph43.split.us.i.i, %.preheader.us.i.i
  %indvars.iv.i.i = phi i64 [ %indvars.iv.next.i.i, %.preheader.us.i.i ], [ 0, %.lr.ph43.split.us.i.i ]
  %20 = getelementptr inbounds nuw double, ptr %.03341.us.i.i, i64 %indvars.iv.i.i
  %21 = load double, ptr %20, align 8, !tbaa !20
  %22 = getelementptr inbounds nuw double, ptr %.03440.us.i.i, i64 %indvars.iv.i.i
  %23 = load double, ptr %22, align 8, !tbaa !20
  %24 = fadd double %21, %23
  store double %24, ptr %22, align 8, !tbaa !20
  %indvars.iv.next.i.i = add nuw nsw i64 %indvars.iv.i.i, 1
  %exitcond.not.i.i = icmp eq i64 %indvars.iv.next.i.i, %wide.trip.count.i.i
  br i1 %exitcond.not.i.i, label %..loopexit37_crit_edge.us.i.i, label %.preheader.us.i.i, !llvm.loop !32

..loopexit37_crit_edge.us.i.i:                    ; preds = %.preheader.us.i.i, %.lr.ph43.split.us.i.i
  %indvars.iv.next49.i.i = add nuw nsw i64 %indvars.iv48.i.i, 1
  %25 = getelementptr inbounds nuw double, ptr %.03341.us.i.i, i64 %17
  %26 = getelementptr inbounds nuw double, ptr %.03440.us.i.i, i64 %17
  %exitcond52.not.i.i = icmp eq i64 %indvars.iv.next49.i.i, %wide.trip.count51.i.i
  br i1 %exitcond52.not.i.i, label %_ZN2cv12cpu_baseline9acc_simd_EPKdPdPKhii.exit, label %.lr.ph43.split.us.i.i, !llvm.loop !33

_ZN2cv12cpu_baseline9acc_simd_EPKdPdPKhii.exit:   ; preds = %..loopexit37_crit_edge.us.i.i, %.lr.ph.i.i, %6, %14, %.lr.ph43.i.i
  ret void
}